; Function Attrs: mustprogress nofree norecurse nosync nounwind willreturn memory(argmem: read) uwtable
define hidden noundef nonnull align 8 dereferenceable(32) ptr @_ZNK6Assimp13ColladaLoader10ReadStringB5cxx11ERKNS_7Collada8AccessorERKNS1_4DataEm(ptr noundef nonnull readnone align 8 captures(none) dereferenceable(380) %0, ptr noundef nonnull readonly align 8 captures(none) dereferenceable(128) %1, ptr noundef nonnull readonly align 8 captures(none) dereferenceable(56) %2, i64 noundef %3) local_unnamed_addr #15 align 2 {
  %5 = getelementptr inbounds nuw i8, ptr %1, i64 24
  %6 = load i64, ptr %5, align 8
  %7 = mul i64 %6, %3
  %8 = getelementptr inbounds nuw i8, ptr %1, i64 16
  %9 = load i64, ptr %8, align 8
  %10 = getelementptr inbounds nuw i8, ptr %2, i64 32
  %11 = load ptr, ptr %10, align 8
  %12 = getelementptr %"class.std::__cxx11::basic_string", ptr %11, i64 %7
  %13 = getelementptr %"class.std::__cxx11::basic_string", ptr %12, i64 %9
  ret ptr %13
}